target datalayout = "e-m:e-p270:32:32-p271:32:32-p272:64:64-i64:64-i128:128-f80:128-n8:16:32:64-S128"
target triple = "x86_64-pc-linux-gnu"

%"class.llvm::StringMapImpl" = type { ptr, i32, i32, i32, i32 }
%"class.llvm::OffloadEntriesInfoManager" = type { ptr, i32, %"class.std::map", %"class.std::map.81", %"class.llvm::StringMap.86" }
%"class.std::map" = type { %"class.std::_Rb_tree" }
%"class.std::_Rb_tree" = type { %"struct.std::_Rb_tree<llvm::TargetRegionEntryInfo, std::pair<const llvm::TargetRegionEntryInfo, unsigned int>, std::_Select1st<std::pair<const llvm::TargetRegionEntryInfo, unsigned int>>, std::less<llvm::TargetRegionEntryInfo>>::_Rb_tree_impl" }
%"struct.std::_Rb_tree<llvm::TargetRegionEntryInfo, std::pair<const llvm::TargetRegionEntryInfo, unsigned int>, std::_Select1st<std::pair<const llvm::TargetRegionEntryInfo, unsigned int>>, std::less<llvm::TargetRegionEntryInfo>>::_Rb_tree_impl" = type { [8 x i8], %"struct.std::_Rb_tree_header" }
%"struct.std::_Rb_tree_header" = type { %"struct.std::_Rb_tree_node_base", i64 }
%"struct.std::_Rb_tree_node_base" = type { i32, ptr, ptr, ptr }
%"class.std::map.81" = type { %"class.std::_Rb_tree.82" }
%"class.std::_Rb_tree.82" = type { %"struct.std::_Rb_tree<llvm::TargetRegionEntryInfo, std::pair<const llvm::TargetRegionEntryInfo, llvm::OffloadEntriesInfoManager::OffloadEntryInfoTargetRegion>, std::_Select1st<std::pair<const llvm::TargetRegionEntryInfo, llvm::OffloadEntriesInfoManager::OffloadEntryInfoTargetRegion>>, std::less<llvm::TargetRegionEntryInfo>>::_Rb_tree_impl" }
%"struct.std::_Rb_tree<llvm::TargetRegionEntryInfo, std::pair<const llvm::TargetRegionEntryInfo, llvm::OffloadEntriesInfoManager::OffloadEntryInfoTargetRegion>, std::_Select1st<std::pair<const llvm::TargetRegionEntryInfo, llvm::OffloadEntriesInfoManager::OffloadEntryInfoTargetRegion>>, std::less<llvm::TargetRegionEntryInfo>>::_Rb_tree_impl" = type { [8 x i8], %"struct.std::_Rb_tree_header" }
%"class.llvm::StringMap.86" = type { %"class.llvm::StringMapImpl" }

; Function Attrs: mustprogress nounwind uwtable
define linkonce_odr hidden noundef zeroext i1 @_ZNKSt8_Rb_treeIN4llvm21TargetRegionEntryInfoESt4pairIKS1_NS0_25OffloadEntriesInfoManager28OffloadEntryInfoTargetRegionEESt10_Select1stIS6_ESt4lessIS1_ESaIS6_EE5emptyEv(ptr noundef nonnull align 8 dereferenceable(48) %0) #1 comdat align 2 {
  %2 = alloca ptr, align 8
  store ptr %0, ptr %2, align 8
  %3 = load ptr, ptr %2, align 8
  %4 = getelementptr inbounds nuw %"class.std::_Rb_tree.82", ptr %3, i32 0, i32 0
  %5 = getelementptr inbounds i8, ptr %4, i64 8
  %6 = getelementptr inbounds nuw %"struct.std::_Rb_tree_header", ptr %5, i32 0, i32 1
  %7 = load i64, ptr %6, align 8
  %8 = icmp eq i64 %7, 0
  ret i1 %8
}

; Function Attrs: mustprogress nounwind uwtable
define linkonce_odr hidden noundef zeroext i1 @_ZNK4llvm13StringMapImpl5emptyEv(ptr noundef nonnull align 8 dereferenceable(24) %0) #1 comdat align 2 {
  %2 = alloca ptr, align 8
  store ptr %0, ptr %2, align 8
  %3 = load ptr, ptr %2, align 8
  %4 = getelementptr inbounds nuw %"class.llvm::StringMapImpl", ptr %3, i32 0, i32 2
  %5 = load i32, ptr %4, align 4
  %6 = icmp eq i32 %5, 0
  ret i1 %6
}

; Function Attrs: mustprogress nounwind uwtable
define linkonce_odr hidden noundef zeroext i1 @_ZNKSt3mapIN4llvm21TargetRegionEntryInfoENS0_25OffloadEntriesInfoManager28OffloadEntryInfoTargetRegionESt4lessIS1_ESaISt4pairIKS1_S3_EEE5emptyEv(ptr noundef nonnull align 8 dereferenceable(48) %0) #1 comdat align 2 {
  %2 = alloca ptr, align 8
  store ptr %0, ptr %2, align 8
  %3 = load ptr, ptr %2, align 8
  %4 = getelementptr inbounds nuw %"class.std::map.81", ptr %3, i32 0, i32 0
  %5 = call noundef zeroext i1 @_ZNKSt8_Rb_treeIN4llvm21TargetRegionEntryInfoESt4pairIKS1_NS0_25OffloadEntriesInfoManager28OffloadEntryInfoTargetRegionEESt10_Select1stIS6_ESt4lessIS1_ESaIS6_EE5emptyEv(ptr noundef nonnull align 8 dereferenceable(48) %4) #2
  ret i1 %5
}

; Function Attrs: mustprogress nounwind uwtable
define dso_local noundef zeroext i1 @_ZNK4llvm25OffloadEntriesInfoManager5emptyEv(ptr noundef nonnull align 8 dereferenceable(136) %0) #1 align 2 {
  %2 = alloca ptr, align 8
  store ptr %0, ptr %2, align 8
  %3 = load ptr, ptr %2, align 8
  %4 = getelementptr inbounds nuw %"class.llvm::OffloadEntriesInfoManager", ptr %3, i32 0, i32 3
  %5 = call noundef zeroext i1 @_ZNKSt3mapIN4llvm21TargetRegionEntryInfoENS0_25OffloadEntriesInfoManager28OffloadEntryInfoTargetRegionESt4lessIS1_ESaISt4pairIKS1_S3_EEE5emptyEv(ptr noundef nonnull align 8 dereferenceable(48) %4) #2
  br i1 %5, label %6, label %9

6:                                                ; preds = %1
  %7 = getelementptr inbounds nuw %"class.llvm::OffloadEntriesInfoManager", ptr %3, i32 0, i32 4
  %8 = call noundef zeroext i1 @_ZNK4llvm13StringMapImpl5emptyEv(ptr noundef nonnull align 8 dereferenceable(24) %7)
  br label %9

9:                                                ; preds = %6, %1
  %10 = phi i1 [ false, %1 ], [ %8, %6 ]
  ret i1 %10
}