; Function Attrs: mustprogress nofree norecurse nosync nounwind willreturn memory(argmem: read) uwtable
define dso_local noundef zeroext i1 @_ZNK4llvm25OffloadEntriesInfoManager5emptyEv(ptr noundef nonnull readonly align 8 captures(none) dereferenceable(136) %0) local_unnamed_addr #4 align 2 {
  %2 = getelementptr inbounds nuw i8, ptr %0, i64 104
  %3 = load i64, ptr %2, align 8
  %4 = icmp eq i64 %3, 0
  %5 = getelementptr inbounds nuw i8, ptr %0, i64 124
  %6 = load i32, ptr %5, align 4
  %7 = icmp eq i32 %6, 0
  %8 = select i1 %4, i1 %7, i1 false
  ret i1 %8
}